target datalayout = "e-m:e-p270:32:32-p271:32:32-p272:64:64-i64:64-i128:128-f80:128-n8:16:32:64-S128"
target triple = "x86_64-pc-linux-gnu"

%"struct.arrow::ipc::IpcWriteOptions" = type <{ i8, [3 x i8], i32, i32, i8, [3 x i8], ptr, %"class.std::shared_ptr", %"class.std::optional", i8, i8, i8, i8, [4 x i8] }>
%"class.std::shared_ptr" = type { %"class.std::__shared_ptr" }
%"class.std::__shared_ptr" = type { ptr, %"class.std::__shared_count" }
%"class.std::__shared_count" = type { ptr }
%"class.std::optional" = type { %"struct.std::_Optional_base" }
%"struct.std::_Optional_base" = type { %"struct.std::_Optional_payload" }
%"struct.std::_Optional_payload" = type { %"struct.std::_Optional_payload_base.base", [7 x i8] }
%"struct.std::_Optional_payload_base.base" = type <{ %"union.std::_Optional_payload_base<double>::_Storage", i8 }>
%"union.std::_Optional_payload_base<double>::_Storage" = type { double }
%"struct.std::_Optional_payload_base" = type <{ %"union.std::_Optional_payload_base<double>::_Storage", i8, [7 x i8] }>

; Function Attrs: mustprogress nounwind uwtable
define linkonce_odr void @_ZNSt22_Optional_payload_baseIdE8_StorageIdLb1EEC2Ev(ptr noundef nonnull align 8 dereferenceable(8) %0) unnamed_addr #3 comdat align 2 {
  %2 = alloca ptr, align 8
  store ptr %0, ptr %2, align 8, !tbaa !66
  ret void
}

; Function Attrs: mustprogress nounwind uwtable
define linkonce_odr void @_ZNSt22_Optional_payload_baseIdEC2Ev(ptr noundef nonnull align 8 dereferenceable(9) %0) unnamed_addr #3 comdat align 2 {
  %2 = alloca ptr, align 8
  store ptr %0, ptr %2, align 8, !tbaa !63
  %3 = load ptr, ptr %2, align 8
  %4 = getelementptr inbounds nuw %"struct.std::_Optional_payload_base", ptr %3, i32 0, i32 0
  call void @_ZNSt22_Optional_payload_baseIdE8_StorageIdLb1EEC2Ev(ptr noundef nonnull align 8 dereferenceable(8) %4) #10
  %5 = getelementptr inbounds nuw %"struct.std::_Optional_payload_base", ptr %3, i32 0, i32 1
  store i8 0, ptr %5, align 8, !tbaa !65
  ret void
}

; Function Attrs: mustprogress nounwind uwtable
define linkonce_odr void @_ZNSt17_Optional_payloadIdLb1ELb1ELb1EEC2Ev(ptr noundef nonnull align 8 dereferenceable(9) %0) unnamed_addr #3 comdat align 2 {
  %2 = alloca ptr, align 8
  store ptr %0, ptr %2, align 8, !tbaa !61
  %3 = load ptr, ptr %2, align 8
  call void @_ZNSt22_Optional_payload_baseIdEC2Ev(ptr noundef nonnull align 8 dereferenceable(9) %3) #10
  ret void
}

; Function Attrs: mustprogress nounwind uwtable
define linkonce_odr void @_ZNSt14__shared_countILN9__gnu_cxx12_Lock_policyE2EEC2Ev(ptr noundef nonnull align 8 dereferenceable(8) %0) unnamed_addr #3 comdat align 2 {
  %2 = alloca ptr, align 8
  store ptr %0, ptr %2, align 8, !tbaa !56
  %3 = load ptr, ptr %2, align 8
  %4 = getelementptr inbounds nuw %"class.std::__shared_count", ptr %3, i32 0, i32 0
  store ptr null, ptr %4, align 8, !tbaa !58
  ret void
}

; Function Attrs: mustprogress nounwind uwtable
define linkonce_odr void @_ZNSt14_Optional_baseIdLb1ELb1EEC2Ev(ptr noundef nonnull align 8 dereferenceable(16) %0) unnamed_addr #3 comdat align 2 {
  %2 = alloca ptr, align 8
  store ptr %0, ptr %2, align 8, !tbaa !59
  %3 = load ptr, ptr %2, align 8
  %4 = getelementptr inbounds nuw %"struct.std::_Optional_base", ptr %3, i32 0, i32 0
  call void @_ZNSt17_Optional_payloadIdLb1ELb1ELb1EEC2Ev(ptr noundef nonnull align 8 dereferenceable(9) %4) #10
  ret void
}

; Function Attrs: mustprogress nounwind uwtable
define linkonce_odr void @_ZNSt12__shared_ptrIN5arrow4util5CodecELN9__gnu_cxx12_Lock_policyE2EEC2Ev(ptr noundef nonnull align 8 dereferenceable(16) %0) unnamed_addr #3 comdat align 2 {
  %2 = alloca ptr, align 8
  store ptr %0, ptr %2, align 8, !tbaa !53
  %3 = load ptr, ptr %2, align 8
  %4 = getelementptr inbounds nuw %"class.std::__shared_ptr", ptr %3, i32 0, i32 0
  store ptr null, ptr %4, align 8, !tbaa !55
  %5 = getelementptr inbounds nuw %"class.std::__shared_ptr", ptr %3, i32 0, i32 1
  call void @_ZNSt14__shared_countILN9__gnu_cxx12_Lock_policyE2EEC2Ev(ptr noundef nonnull align 8 dereferenceable(8) %5) #10
  ret void
}

; Function Attrs: mustprogress nounwind uwtable
define linkonce_odr void @_ZNSt8optionalIdEC2Ev(ptr noundef nonnull align 8 dereferenceable(16) %0) unnamed_addr #3 comdat align 2 {
  %2 = alloca ptr, align 8
  store ptr %0, ptr %2, align 8, !tbaa !51
  %3 = load ptr, ptr %2, align 8
  call void @_ZNSt14_Optional_baseIdLb1ELb1EEC2Ev(ptr noundef nonnull align 8 dereferenceable(16) %3) #10
  ret void
}

; Function Attrs: mustprogress nounwind uwtable
define linkonce_odr void @_ZNSt10shared_ptrIN5arrow4util5CodecEEC2Ev(ptr noundef nonnull align 8 dereferenceable(16) %0) unnamed_addr #3 comdat align 2 {
  %2 = alloca ptr, align 8
  store ptr %0, ptr %2, align 8, !tbaa !49
  %3 = load ptr, ptr %2, align 8
  call void @_ZNSt12__shared_ptrIN5arrow4util5CodecELN9__gnu_cxx12_Lock_policyE2EEC2Ev(ptr noundef nonnull align 8 dereferenceable(16) %3) #10
  ret void
}

; Function Attrs: inlinehint mustprogress uwtable
define linkonce_odr void @_ZN5arrow3ipc15IpcWriteOptionsC2Ev(ptr noundef nonnull align 8 dereferenceable(60) %0) unnamed_addr #2 comdat align 2 {
  %2 = alloca ptr, align 8
  store ptr %0, ptr %2, align 8, !tbaa !3
  %3 = load ptr, ptr %2, align 8
  %4 = getelementptr inbounds nuw %"struct.arrow::ipc::IpcWriteOptions", ptr %3, i32 0, i32 0
  store i8 0, ptr %4, align 8, !tbaa !8
  %5 = getelementptr inbounds nuw %"struct.arrow::ipc::IpcWriteOptions", ptr %3, i32 0, i32 2
  store i32 64, ptr %5, align 4, !tbaa !23
  %6 = getelementptr inbounds nuw %"struct.arrow::ipc::IpcWriteOptions", ptr %3, i32 0, i32 3
  store i32 8, ptr %6, align 8, !tbaa !24
  %7 = getelementptr inbounds nuw %"struct.arrow::ipc::IpcWriteOptions", ptr %3, i32 0, i32 4
  store i8 0, ptr %7, align 4, !tbaa !25
  %8 = getelementptr inbounds nuw %"struct.arrow::ipc::IpcWriteOptions", ptr %3, i32 0, i32 6
  %9 = call noundef ptr @_ZN5arrow19default_memory_poolEv()
  store ptr %9, ptr %8, align 8, !tbaa !26
  %10 = getelementptr inbounds nuw %"struct.arrow::ipc::IpcWriteOptions", ptr %3, i32 0, i32 7
  call void @_ZNSt10shared_ptrIN5arrow4util5CodecEEC2Ev(ptr noundef nonnull align 8 dereferenceable(16) %10) #10
  %11 = getelementptr inbounds nuw %"struct.arrow::ipc::IpcWriteOptions", ptr %3, i32 0, i32 8
  call void @_ZNSt8optionalIdEC2Ev(ptr noundef nonnull align 8 dereferenceable(16) %11) #10
  %12 = getelementptr inbounds nuw %"struct.arrow::ipc::IpcWriteOptions", ptr %3, i32 0, i32 9
  store i8 1, ptr %12, align 8, !tbaa !27
  %13 = getelementptr inbounds nuw %"struct.arrow::ipc::IpcWriteOptions", ptr %3, i32 0, i32 10
  store i8 0, ptr %13, align 1, !tbaa !28
  %14 = getelementptr inbounds nuw %"struct.arrow::ipc::IpcWriteOptions", ptr %3, i32 0, i32 11
  store i8 0, ptr %14, align 2, !tbaa !29
  %15 = getelementptr inbounds nuw %"struct.arrow::ipc::IpcWriteOptions", ptr %3, i32 0, i32 12
  store i8 4, ptr %15, align 1, !tbaa !30
  ret void
}

; Function Attrs: mustprogress uwtable
define void @_ZN5arrow3ipc15IpcWriteOptions8DefaultsEv(ptr dead_on_unwind noalias writable sret(%"struct.arrow::ipc::IpcWriteOptions") align 8 %0) #0 align 2 {
  %2 = alloca ptr, align 8
  store ptr %0, ptr %2, align 8
  call void @llvm.memset.p0.i64(ptr align 8 %0, i8 0, i64 64, i1 false)
  call void @_ZN5arrow3ipc15IpcWriteOptionsC2Ev(ptr noundef nonnull align 8 dereferenceable(60) %0)
  ret void
}