; Function Attrs: mustprogress uwtable
define void @_ZN5arrow3ipc15IpcWriteOptions8DefaultsEv(ptr dead_on_unwind noalias writable writeonly sret(%"struct.arrow::ipc::IpcWriteOptions") align 8 captures(none) initializes((0, 64)) %0) local_unnamed_addr #0 align 2 {
  %2 = getelementptr inbounds nuw i8, ptr %0, i64 4
  tail call void @llvm.memset.p0.i64(ptr noundef nonnull align 8 dereferenceable(64) %0, i8 0, i64 64, i1 false)
  store i32 64, ptr %2, align 4, !tbaa !3
  %3 = getelementptr inbounds nuw i8, ptr %0, i64 8
  store i32 8, ptr %3, align 8, !tbaa !21
  %4 = getelementptr inbounds nuw i8, ptr %0, i64 16
  %5 = tail call noundef ptr @_ZN5arrow19default_memory_poolEv()
  store ptr %5, ptr %4, align 8, !tbaa !22
  %6 = getelementptr inbounds nuw i8, ptr %0, i64 24
  tail call void @llvm.memset.p0.i64(ptr noundef nonnull align 8 dereferenceable(16) %6, i8 0, i64 16, i1 false)
  %7 = getelementptr inbounds nuw i8, ptr %0, i64 48
  store i8 0, ptr %7, align 8, !tbaa !23
  %8 = getelementptr inbounds nuw i8, ptr %0, i64 56
  store i8 1, ptr %8, align 8, !tbaa !24
  %9 = getelementptr inbounds nuw i8, ptr %0, i64 57
  store i8 0, ptr %9, align 1, !tbaa !25
  %10 = getelementptr inbounds nuw i8, ptr %0, i64 58
  store i8 0, ptr %10, align 2, !tbaa !26
  %11 = getelementptr inbounds nuw i8, ptr %0, i64 59
  store i8 4, ptr %11, align 1, !tbaa !27
  ret void
}